target datalayout = "e-m:e-p270:32:32-p271:32:32-p272:64:64-i64:64-i128:128-f80:128-n8:16:32:64-S128"
target triple = "x86_64-unknown-linux-gnu"

%"class.icu_75::RBBIRuleBuilder" = type { ptr, ptr, ptr, ptr, ptr, %"class.icu_75::UnicodeString", ptr, ptr, ptr, ptr, ptr, ptr, i8, i8, ptr, ptr, ptr, ptr }
%"class.icu_75::UnicodeString" = type { %"class.icu_75::Replaceable", %"union.icu_75::UnicodeString::StackBufferOrFields" }
%"class.icu_75::Replaceable" = type { %"class.icu_75::UObject" }
%"class.icu_75::UObject" = type { ptr }
%"union.icu_75::UnicodeString::StackBufferOrFields" = type { %struct.anon.0, [32 x i8] }
%struct.anon.0 = type { i16, i32, i32, ptr }

@_ZTVN6icu_7515RBBIRuleBuilderE = unnamed_addr constant { [4 x ptr] } { [4 x ptr] [ptr null, ptr @_ZTIN6icu_7515RBBIRuleBuilderE, ptr @_ZN6icu_7515RBBIRuleBuilderD1Ev, ptr @_ZN6icu_7515RBBIRuleBuilderD0Ev] }, align 8

; Function Attrs: mustprogress nounwind uwtable
define void @_ZN6icu_7515RBBIRuleBuilderD2Ev(ptr noundef nonnull align 8 dereferenceable(192) %this) unnamed_addr #3 align 2 personality ptr @__gxx_personality_v0 {
entry:
  %this.addr = alloca ptr, align 8
  %i = alloca i32, align 4
  %n = alloca ptr, align 8
  store ptr %this, ptr %this.addr, align 8
  %this1 = load ptr, ptr %this.addr, align 8
  store ptr getelementptr inbounds ({ [4 x ptr] }, ptr @_ZTVN6icu_7515RBBIRuleBuilderE, i32 0, i32 0, i32 2), ptr %this1, align 8
  store i32 0, ptr %i, align 4
  br label %for.cond

for.cond:                                         ; preds = %for.inc, %entry
  %fUSetNodes = getelementptr inbounds %"class.icu_75::RBBIRuleBuilder", ptr %this1, i32 0, i32 15
  %0 = load ptr, ptr %fUSetNodes, align 8
  %1 = load i32, ptr %i, align 4
  %call = invoke noundef ptr @_ZNK6icu_757UVector9elementAtEi(ptr noundef nonnull align 8 dereferenceable(40) %0, i32 noundef %1)
          to label %invoke.cont unwind label %terminate.lpad

invoke.cont:                                      ; preds = %for.cond
  store ptr %call, ptr %n, align 8
  %2 = load ptr, ptr %n, align 8
  %cmp = icmp eq ptr %2, null
  br i1 %cmp, label %if.then, label %if.end

if.then:                                          ; preds = %invoke.cont
  br label %for.end

if.end:                                           ; preds = %invoke.cont
  %3 = load ptr, ptr %n, align 8
  %isnull = icmp eq ptr %3, null
  br i1 %isnull, label %delete.end, label %delete.notnull

delete.notnull:                                   ; preds = %if.end
  call void @_ZN6icu_758RBBINodeD1Ev(ptr noundef nonnull align 8 dereferenceable(160) %3) #8
  call void @_ZN6icu_757UMemorydlEPv(ptr noundef %3) #8
  br label %delete.end

delete.end:                                       ; preds = %delete.notnull, %if.end
  br label %for.inc

for.inc:                                          ; preds = %delete.end
  %4 = load i32, ptr %i, align 4
  %inc = add nsw i32 %4, 1
  store i32 %inc, ptr %i, align 4
  br label %for.cond, !llvm.loop !4

for.end:                                          ; preds = %if.then
  %fUSetNodes2 = getelementptr inbounds %"class.icu_75::RBBIRuleBuilder", ptr %this1, i32 0, i32 15
  %5 = load ptr, ptr %fUSetNodes2, align 8
  %isnull3 = icmp eq ptr %5, null
  br i1 %isnull3, label %delete.end5, label %delete.notnull4

delete.notnull4:                                  ; preds = %for.end
  %vtable = load ptr, ptr %5, align 8
  %vfn = getelementptr inbounds ptr, ptr %vtable, i64 1
  %6 = load ptr, ptr %vfn, align 8
  call void %6(ptr noundef nonnull align 8 dereferenceable(40) %5) #8
  br label %delete.end5

delete.end5:                                      ; preds = %delete.notnull4, %for.end
  %fSetBuilder = getelementptr inbounds %"class.icu_75::RBBIRuleBuilder", ptr %this1, i32 0, i32 14
  %7 = load ptr, ptr %fSetBuilder, align 8
  %isnull6 = icmp eq ptr %7, null
  br i1 %isnull6, label %delete.end8, label %delete.notnull7

delete.notnull7:                                  ; preds = %delete.end5
  call void @_ZN6icu_7514RBBISetBuilderD1Ev(ptr noundef nonnull align 8 dereferenceable(53) %7) #8
  call void @_ZN6icu_757UMemorydlEPv(ptr noundef %7) #8
  br label %delete.end8

delete.end8:                                      ; preds = %delete.notnull7, %delete.end5
  %fForwardTable = getelementptr inbounds %"class.icu_75::RBBIRuleBuilder", ptr %this1, i32 0, i32 16
  %8 = load ptr, ptr %fForwardTable, align 8
  %isnull9 = icmp eq ptr %8, null
  br i1 %isnull9, label %delete.end11, label %delete.notnull10

delete.notnull10:                                 ; preds = %delete.end8
  call void @_ZN6icu_7516RBBITableBuilderD1Ev(ptr noundef nonnull align 8 dereferenceable(52) %8) #8
  call void @_ZN6icu_757UMemorydlEPv(ptr noundef %8) #8
  br label %delete.end11

delete.end11:                                     ; preds = %delete.notnull10, %delete.end8
  %fForwardTree = getelementptr inbounds %"class.icu_75::RBBIRuleBuilder", ptr %this1, i32 0, i32 7
  %9 = load ptr, ptr %fForwardTree, align 8
  %isnull12 = icmp eq ptr %9, null
  br i1 %isnull12, label %delete.end14, label %delete.notnull13

delete.notnull13:                                 ; preds = %delete.end11
  call void @_ZN6icu_758RBBINodeD1Ev(ptr noundef nonnull align 8 dereferenceable(160) %9) #8
  call void @_ZN6icu_757UMemorydlEPv(ptr noundef %9) #8
  br label %delete.end14

delete.end14:                                     ; preds = %delete.notnull13, %delete.end11
  %fReverseTree = getelementptr inbounds %"class.icu_75::RBBIRuleBuilder", ptr %this1, i32 0, i32 8
  %10 = load ptr, ptr %fReverseTree, align 8
  %isnull15 = icmp eq ptr %10, null
  br i1 %isnull15, label %delete.end17, label %delete.notnull16

delete.notnull16:                                 ; preds = %delete.end14
  call void @_ZN6icu_758RBBINodeD1Ev(ptr noundef nonnull align 8 dereferenceable(160) %10) #8
  call void @_ZN6icu_757UMemorydlEPv(ptr noundef %10) #8
  br label %delete.end17

delete.end17:                                     ; preds = %delete.notnull16, %delete.end14
  %fSafeFwdTree = getelementptr inbounds %"class.icu_75::RBBIRuleBuilder", ptr %this1, i32 0, i32 9
  %11 = load ptr, ptr %fSafeFwdTree, align 8
  %isnull18 = icmp eq ptr %11, null
  br i1 %isnull18, label %delete.end20, label %delete.notnull19

delete.notnull19:                                 ; preds = %delete.end17
  call void @_ZN6icu_758RBBINodeD1Ev(ptr noundef nonnull align 8 dereferenceable(160) %11) #8
  call void @_ZN6icu_757UMemorydlEPv(ptr noundef %11) #8
  br label %delete.end20

delete.end20:                                     ; preds = %delete.notnull19, %delete.end17
  %fSafeRevTree = getelementptr inbounds %"class.icu_75::RBBIRuleBuilder", ptr %this1, i32 0, i32 10
  %12 = load ptr, ptr %fSafeRevTree, align 8
  %isnull21 = icmp eq ptr %12, null
  br i1 %isnull21, label %delete.end23, label %delete.notnull22

delete.notnull22:                                 ; preds = %delete.end20
  call void @_ZN6icu_758RBBINodeD1Ev(ptr noundef nonnull align 8 dereferenceable(160) %12) #8
  call void @_ZN6icu_757UMemorydlEPv(ptr noundef %12) #8
  br label %delete.end23

delete.end23:                                     ; preds = %delete.notnull22, %delete.end20
  %fScanner = getelementptr inbounds %"class.icu_75::RBBIRuleBuilder", ptr %this1, i32 0, i32 6
  %13 = load ptr, ptr %fScanner, align 8
  %isnull24 = icmp eq ptr %13, null
  br i1 %isnull24, label %delete.end28, label %delete.notnull25

delete.notnull25:                                 ; preds = %delete.end23
  %vtable26 = load ptr, ptr %13, align 8
  %vfn27 = getelementptr inbounds ptr, ptr %vtable26, i64 1
  %14 = load ptr, ptr %vfn27, align 8
  call void %14(ptr noundef nonnull align 8 dereferenceable(3192) %13) #8
  br label %delete.end28

delete.end28:                                     ; preds = %delete.notnull25, %delete.end23
  %fRuleStatusVals = getelementptr inbounds %"class.icu_75::RBBIRuleBuilder", ptr %this1, i32 0, i32 17
  %15 = load ptr, ptr %fRuleStatusVals, align 8
  %isnull29 = icmp eq ptr %15, null
  br i1 %isnull29, label %delete.end33, label %delete.notnull30

delete.notnull30:                                 ; preds = %delete.end28
  %vtable31 = load ptr, ptr %15, align 8
  %vfn32 = getelementptr inbounds ptr, ptr %vtable31, i64 1
  %16 = load ptr, ptr %vfn32, align 8
  call void %16(ptr noundef nonnull align 8 dereferenceable(40) %15) #8
  br label %delete.end33

delete.end33:                                     ; preds = %delete.notnull30, %delete.end28
  %fStrippedRules = getelementptr inbounds %"class.icu_75::RBBIRuleBuilder", ptr %this1, i32 0, i32 5
  call void @_ZN6icu_7513UnicodeStringD1Ev(ptr noundef nonnull align 8 dereferenceable(64) %fStrippedRules) #8
  ret void

terminate.lpad:                                   ; preds = %for.cond
  %17 = landingpad { ptr, i32 }
          catch ptr null
  %18 = extractvalue { ptr, i32 } %17, 0
  call void @__clang_call_terminate(ptr %18) #9
  unreachable
}