; Function Attrs: mustprogress nounwind uwtable
define void @_ZN6icu_7515RBBIRuleBuilderD2Ev(ptr noundef nonnull align 8 dereferenceable(192) %this) unnamed_addr #4 align 2 personality ptr @__gxx_personality_v0 {
entry:
  store ptr getelementptr inbounds ({ [4 x ptr] }, ptr @_ZTVN6icu_7515RBBIRuleBuilderE, i64 0, i32 0, i64 2), ptr %this, align 8
  %fUSetNodes = getelementptr inbounds i8, ptr %this, i64 168
  br label %for.cond

for.cond:                                         ; preds = %delete.notnull, %entry
  %i.0 = phi i32 [ 0, %entry ], [ %inc, %delete.notnull ]
  %0 = load ptr, ptr %fUSetNodes, align 8
  %call = invoke noundef ptr @_ZNK6icu_757UVector9elementAtEi(ptr noundef nonnull align 8 dereferenceable(40) %0, i32 noundef %i.0)
          to label %invoke.cont unwind label %terminate.lpad

invoke.cont:                                      ; preds = %for.cond
  %cmp = icmp eq ptr %call, null
  br i1 %cmp, label %for.end, label %delete.notnull

delete.notnull:                                   ; preds = %invoke.cont
  tail call void @_ZN6icu_758RBBINodeD1Ev(ptr noundef nonnull align 8 dereferenceable(160) %call) #8
  tail call void @_ZN6icu_757UMemorydlEPv(ptr noundef nonnull %call) #8
  %inc = add nuw nsw i32 %i.0, 1
  br label %for.cond, !llvm.loop !4

for.end:                                          ; preds = %invoke.cont
  %1 = load ptr, ptr %fUSetNodes, align 8
  %isnull3 = icmp eq ptr %1, null
  br i1 %isnull3, label %delete.end5, label %delete.notnull4

delete.notnull4:                                  ; preds = %for.end
  %vtable = load ptr, ptr %1, align 8
  %vfn = getelementptr inbounds i8, ptr %vtable, i64 8
  %2 = load ptr, ptr %vfn, align 8
  tail call void %2(ptr noundef nonnull align 8 dereferenceable(40) %1) #8
  br label %delete.end5

delete.end5:                                      ; preds = %delete.notnull4, %for.end
  %fSetBuilder = getelementptr inbounds i8, ptr %this, i64 160
  %3 = load ptr, ptr %fSetBuilder, align 8
  %isnull6 = icmp eq ptr %3, null
  br i1 %isnull6, label %delete.end8, label %delete.notnull7

delete.notnull7:                                  ; preds = %delete.end5
  tail call void @_ZN6icu_7514RBBISetBuilderD1Ev(ptr noundef nonnull align 8 dereferenceable(53) %3) #8
  tail call void @_ZN6icu_757UMemorydlEPv(ptr noundef nonnull %3) #8
  br label %delete.end8

delete.end8:                                      ; preds = %delete.notnull7, %delete.end5
  %fForwardTable = getelementptr inbounds i8, ptr %this, i64 176
  %4 = load ptr, ptr %fForwardTable, align 8
  %isnull9 = icmp eq ptr %4, null
  br i1 %isnull9, label %delete.end11, label %delete.notnull10

delete.notnull10:                                 ; preds = %delete.end8
  tail call void @_ZN6icu_7516RBBITableBuilderD1Ev(ptr noundef nonnull align 8 dereferenceable(52) %4) #8
  tail call void @_ZN6icu_757UMemorydlEPv(ptr noundef nonnull %4) #8
  br label %delete.end11

delete.end11:                                     ; preds = %delete.notnull10, %delete.end8
  %fForwardTree = getelementptr inbounds i8, ptr %this, i64 112
  %5 = load ptr, ptr %fForwardTree, align 8
  %isnull12 = icmp eq ptr %5, null
  br i1 %isnull12, label %delete.end14, label %delete.notnull13

delete.notnull13:                                 ; preds = %delete.end11
  tail call void @_ZN6icu_758RBBINodeD1Ev(ptr noundef nonnull align 8 dereferenceable(160) %5) #8
  tail call void @_ZN6icu_757UMemorydlEPv(ptr noundef nonnull %5) #8
  br label %delete.end14

delete.end14:                                     ; preds = %delete.notnull13, %delete.end11
  %fReverseTree = getelementptr inbounds i8, ptr %this, i64 120
  %6 = load ptr, ptr %fReverseTree, align 8
  %isnull15 = icmp eq ptr %6, null
  br i1 %isnull15, label %delete.end17, label %delete.notnull16

delete.notnull16:                                 ; preds = %delete.end14
  tail call void @_ZN6icu_758RBBINodeD1Ev(ptr noundef nonnull align 8 dereferenceable(160) %6) #8
  tail call void @_ZN6icu_757UMemorydlEPv(ptr noundef nonnull %6) #8
  br label %delete.end17

delete.end17:                                     ; preds = %delete.notnull16, %delete.end14
  %fSafeFwdTree = getelementptr inbounds i8, ptr %this, i64 128
  %7 = load ptr, ptr %fSafeFwdTree, align 8
  %isnull18 = icmp eq ptr %7, null
  br i1 %isnull18, label %delete.end20, label %delete.notnull19

delete.notnull19:                                 ; preds = %delete.end17
  tail call void @_ZN6icu_758RBBINodeD1Ev(ptr noundef nonnull align 8 dereferenceable(160) %7) #8
  tail call void @_ZN6icu_757UMemorydlEPv(ptr noundef nonnull %7) #8
  br label %delete.end20

delete.end20:                                     ; preds = %delete.notnull19, %delete.end17
  %fSafeRevTree = getelementptr inbounds i8, ptr %this, i64 136
  %8 = load ptr, ptr %fSafeRevTree, align 8
  %isnull21 = icmp eq ptr %8, null
  br i1 %isnull21, label %delete.end23, label %delete.notnull22

delete.notnull22:                                 ; preds = %delete.end20
  tail call void @_ZN6icu_758RBBINodeD1Ev(ptr noundef nonnull align 8 dereferenceable(160) %8) #8
  tail call void @_ZN6icu_757UMemorydlEPv(ptr noundef nonnull %8) #8
  br label %delete.end23

delete.end23:                                     ; preds = %delete.notnull22, %delete.end20
  %fScanner = getelementptr inbounds i8, ptr %this, i64 104
  %9 = load ptr, ptr %fScanner, align 8
  %isnull24 = icmp eq ptr %9, null
  br i1 %isnull24, label %delete.end28, label %delete.notnull25

delete.notnull25:                                 ; preds = %delete.end23
  %vtable26 = load ptr, ptr %9, align 8
  %vfn27 = getelementptr inbounds i8, ptr %vtable26, i64 8
  %10 = load ptr, ptr %vfn27, align 8
  tail call void %10(ptr noundef nonnull align 8 dereferenceable(3192) %9) #8
  br label %delete.end28

delete.end28:                                     ; preds = %delete.notnull25, %delete.end23
  %fRuleStatusVals = getelementptr inbounds i8, ptr %this, i64 184
  %11 = load ptr, ptr %fRuleStatusVals, align 8
  %isnull29 = icmp eq ptr %11, null
  br i1 %isnull29, label %delete.end33, label %delete.notnull30

delete.notnull30:                                 ; preds = %delete.end28
  %vtable31 = load ptr, ptr %11, align 8
  %vfn32 = getelementptr inbounds i8, ptr %vtable31, i64 8
  %12 = load ptr, ptr %vfn32, align 8
  tail call void %12(ptr noundef nonnull align 8 dereferenceable(40) %11) #8
  br label %delete.end33

delete.end33:                                     ; preds = %delete.notnull30, %delete.end28
  %fStrippedRules = getelementptr inbounds i8, ptr %this, i64 40
  tail call void @_ZN6icu_7513UnicodeStringD1Ev(ptr noundef nonnull align 8 dereferenceable(64) %fStrippedRules) #8
  ret void

terminate.lpad:                                   ; preds = %for.cond
  %13 = landingpad { ptr, i32 }
          catch ptr null
  %14 = extractvalue { ptr, i32 } %13, 0
  tail call void @__clang_call_terminate(ptr %14) #9
  unreachable
}